; Function Attrs: mustprogress uwtable
define void @_ZNK32pxrInternal_v0_24__pxrReserved__17UsdUsdzFileFormat23GetPackageRootLayerPathERKNSt7__cxx1112basic_stringIcSt11char_traitsIcESaIcEEE(ptr dead_on_unwind noalias writable sret(%"class.std::__cxx11::basic_string") align 8 %0, ptr nonnull readnone align 8 captures(none) %1, ptr noundef nonnull align 8 dereferenceable(32) %2) unnamed_addr #1 align 2 personality ptr @__gxx_personality_v0 {
  %4 = alloca %"class.pxrInternal_v0_24__pxrReserved__::TraceKey", align 8
  %5 = alloca %"class.pxrInternal_v0_24__pxrReserved__::TraceKey", align 8
  %6 = load atomic i32, ptr @_ZN32pxrInternal_v0_24__pxrReserved__14TraceCollector10_isEnabledE acquire, align 4
  %7 = icmp eq i32 %6, 1
  br i1 %7, label %8, label %_ZN32pxrInternal_v0_24__pxrReserved__14TraceScopeAutoC2ERKNS_18TraceStaticKeyDataE.exit

8:                                                ; preds = %3
  fence syncscope("singlethread") seq_cst
  %9 = tail call { i32, i32 } asm sideeffect "lfence\0A\09rdtsc\0A\09lfence", "={ax},={dx},~{dirflag},~{fpsr},~{flags}"() #16, !srcloc !7
  %10 = extractvalue { i32, i32 } %9, 0
  %11 = extractvalue { i32, i32 } %9, 1
  %12 = zext i32 %11 to i64
  %13 = shl nuw i64 %12, 32
  %14 = zext i32 %10 to i64
  br label %_ZN32pxrInternal_v0_24__pxrReserved__14TraceScopeAutoC2ERKNS_18TraceStaticKeyDataE.exit

_ZN32pxrInternal_v0_24__pxrReserved__14TraceScopeAutoC2ERKNS_18TraceStaticKeyDataE.exit: ; preds = %3, %8
  %.sroa.7.0 = phi i64 [ %14, %8 ], [ 0, %3 ]
  %.sroa.11.0 = phi i64 [ %13, %8 ], [ 0, %3 ]
  invoke fastcc void @_ZN32pxrInternal_v0_24__pxrReserved__12_GLOBAL__N_122_GetFirstFileInZipFileERKNSt7__cxx1112basic_stringIcSt11char_traitsIcESaIcEEE(ptr dead_on_unwind noalias writable align 8 %0, ptr noundef nonnull align 8 dereferenceable(32) %2)
          to label %15 unwind label %18

15:                                               ; preds = %_ZN32pxrInternal_v0_24__pxrReserved__14TraceScopeAutoC2ERKNS_18TraceStaticKeyDataE.exit
  call void @llvm.lifetime.start.p0(i64 8, ptr nonnull %5)
  br i1 %7, label %16, label %_ZN32pxrInternal_v0_24__pxrReserved__14TraceScopeAutoD2Ev.exit

16:                                               ; preds = %15
  fence syncscope("singlethread") seq_cst
  %17 = tail call noundef i64 asm sideeffect "rdtscp\0A\09shl $$32, %rdx\0A\09or %rdx, $0\0A\09lfence", "={ax},~{rcx},~{rdx},~{cc},~{dirflag},~{fpsr},~{flags}"() #16, !srcloc !8
  store ptr @_ZZNK32pxrInternal_v0_24__pxrReserved__17UsdUsdzFileFormat23GetPackageRootLayerPathERKNSt7__cxx1112basic_stringIcSt11char_traitsIcESaIcEEEE15TraceKeyData_73, ptr %5, align 8
  %.sroa.7.12.insert.insert = or disjoint i64 %.sroa.11.0, %.sroa.7.0
  call void @_ZN32pxrInternal_v0_24__pxrReserved__14TraceCollector5ScopeERKNS_8TraceKeyEmm(ptr noundef nonnull align 8 dereferenceable(8) %5, i64 noundef %.sroa.7.12.insert.insert, i64 noundef %17) #16
  br label %_ZN32pxrInternal_v0_24__pxrReserved__14TraceScopeAutoD2Ev.exit

_ZN32pxrInternal_v0_24__pxrReserved__14TraceScopeAutoD2Ev.exit: ; preds = %15, %16
  call void @llvm.lifetime.end.p0(i64 8, ptr nonnull %5)
  ret void

18:                                               ; preds = %_ZN32pxrInternal_v0_24__pxrReserved__14TraceScopeAutoC2ERKNS_18TraceStaticKeyDataE.exit
  %19 = landingpad { ptr, i32 }
          cleanup
  call void @llvm.lifetime.start.p0(i64 8, ptr nonnull %4)
  br i1 %7, label %20, label %_ZN32pxrInternal_v0_24__pxrReserved__14TraceScopeAutoD2Ev.exit2

20:                                               ; preds = %18
  fence syncscope("singlethread") seq_cst
  %21 = tail call noundef i64 asm sideeffect "rdtscp\0A\09shl $$32, %rdx\0A\09or %rdx, $0\0A\09lfence", "={ax},~{rcx},~{rdx},~{cc},~{dirflag},~{fpsr},~{flags}"() #16, !srcloc !8
  store ptr @_ZZNK32pxrInternal_v0_24__pxrReserved__17UsdUsdzFileFormat23GetPackageRootLayerPathERKNSt7__cxx1112basic_stringIcSt11char_traitsIcESaIcEEEE15TraceKeyData_73, ptr %4, align 8
  %.sroa.7.12.insert.insert8 = or disjoint i64 %.sroa.11.0, %.sroa.7.0
  call void @_ZN32pxrInternal_v0_24__pxrReserved__14TraceCollector5ScopeERKNS_8TraceKeyEmm(ptr noundef nonnull align 8 dereferenceable(8) %4, i64 noundef %.sroa.7.12.insert.insert8, i64 noundef %21) #16
  br label %_ZN32pxrInternal_v0_24__pxrReserved__14TraceScopeAutoD2Ev.exit2

_ZN32pxrInternal_v0_24__pxrReserved__14TraceScopeAutoD2Ev.exit2: ; preds = %18, %20
  call void @llvm.lifetime.end.p0(i64 8, ptr nonnull %4)
  resume { ptr, i32 } %19
}